; ModuleID = '1369.c'
source_filename = "1369.c"
target datalayout = "e-m:e-p270:32:32-p271:32:32-p272:64:64-i64:64-f80:128-n8:16:32:64-S128"
target triple = "x86_64-pc-linux-gnu"

; Function Attrs: noinline nounwind uwtable
define dso_local i32 @match(i8* %0, i8* %1, i32 %2) #0 {
  %4 = alloca i32, align 4
  %5 = alloca i8*, align 8
  %6 = alloca i8*, align 8
  %7 = alloca i32, align 4
  %8 = alloca [100 x i8], align 16
  %9 = alloca i8, align 1
  %10 = alloca i32, align 4
  %11 = alloca i32, align 4
  store i8* %0, i8** %5, align 8
  store i8* %1, i8** %6, align 8
  store i32 %2, i32* %7, align 4
  store i32 0, i32* %10, align 4
  store i32 0, i32* %11, align 4
  br label %12

12:                                               ; preds = %21, %3
  %13 = load i32, i32* %11, align 4
  %14 = load i32, i32* %7, align 4
  %15 = icmp slt i32 %13, %14
  br i1 %15, label %16, label %24

16:                                               ; preds = %12
  %17 = load i8*, i8** %6, align 8
  %18 = load i32, i32* %11, align 4
  %19 = sext i32 %18 to i64
  %20 = getelementptr inbounds i8, i8* %17, i64 %19
  store i8 32, i8* %20, align 1
  br label %21

21:                                               ; preds = %16
  %22 = load i32, i32* %11, align 4
  %23 = add nsw i32 %22, 1
  store i32 %23, i32* %11, align 4
  br label %12

24:                                               ; preds = %12
  %25 = load i8*, i8** %6, align 8
  %26 = load i32, i32* %7, align 4
  %27 = sext i32 %26 to i64
  %28 = getelementptr inbounds i8, i8* %25, i64 %27
  store i8 0, i8* %28, align 1
  store i32 0, i32* %11, align 4
  br label %29

29:                                               ; preds = %67, %24
  %30 = load i32, i32* %11, align 4
  %31 = load i32, i32* %7, align 4
  %32 = icmp slt i32 %30, %31
  br i1 %32, label %33, label %70

33:                                               ; preds = %29
  %34 = load i8*, i8** %5, align 8
  %35 = load i32, i32* %11, align 4
  %36 = sext i32 %35 to i64
  %37 = getelementptr inbounds i8, i8* %34, i64 %36
  %38 = load i8, i8* %37, align 1
  store i8 %38, i8* %9, align 1
  %39 = load i8, i8* %9, align 1
  %40 = sext i8 %39 to i32
  %41 = icmp eq i32 %40, 40
  br i1 %41, label %42, label %49

42:                                               ; preds = %33
  %43 = load i32, i32* %11, align 4
  %44 = trunc i32 %43 to i8
  %45 = load i32, i32* %10, align 4
  %46 = add nsw i32 %45, 1
  store i32 %46, i32* %10, align 4
  %47 = sext i32 %45 to i64
  %48 = getelementptr inbounds [100 x i8], [100 x i8]* %8, i64 0, i64 %47
  store i8 %44, i8* %48, align 1
  br label %66

49:                                               ; preds = %33
  %50 = load i8, i8* %9, align 1
  %51 = sext i8 %50 to i32
  %52 = icmp eq i32 %51, 41
  br i1 %52, label %53, label %65

53:                                               ; preds = %49
  %54 = load i32, i32* %10, align 4
  %55 = icmp sgt i32 %54, 0
  br i1 %55, label %56, label %59

56:                                               ; preds = %53
  %57 = load i32, i32* %10, align 4
  %58 = add nsw i32 %57, -1
  store i32 %58, i32* %10, align 4
  br label %64

59:                                               ; preds = %53
  %60 = load i8*, i8** %6, align 8
  %61 = load i32, i32* %11, align 4
  %62 = sext i32 %61 to i64
  %63 = getelementptr inbounds i8, i8* %60, i64 %62
  store i8 63, i8* %63, align 1
  br label %64

64:                                               ; preds = %59, %56
  br label %65

65:                                               ; preds = %64, %49
  br label %66

66:                                               ; preds = %65, %42
  br label %67

67:                                               ; preds = %66
  %68 = load i32, i32* %11, align 4
  %69 = add nsw i32 %68, 1
  store i32 %69, i32* %11, align 4
  br label %29

70:                                               ; preds = %29
  br label %71

71:                                               ; preds = %74, %70
  %72 = load i32, i32* %10, align 4
  %73 = icmp sgt i32 %72, 0
  br i1 %73, label %74, label %85

74:                                               ; preds = %71
  %75 = load i32, i32* %10, align 4
  %76 = add nsw i32 %75, -1
  store i32 %76, i32* %10, align 4
  %77 = sext i32 %76 to i64
  %78 = getelementptr inbounds [100 x i8], [100 x i8]* %8, i64 0, i64 %77
  %79 = load i8, i8* %78, align 1
  %80 = sext i8 %79 to i32
  store i32 %80, i32* %11, align 4
  %81 = load i8*, i8** %6, align 8
  %82 = load i32, i32* %11, align 4
  %83 = sext i32 %82 to i64
  %84 = getelementptr inbounds i8, i8* %81, i64 %83
  store i8 36, i8* %84, align 1
  br label %71

85:                                               ; preds = %71
  %86 = load i32, i32* %4, align 4
  ret i32 %86
}

; Function Attrs: noinline nounwind uwtable
define dso_local i32 @outresult(i8* %0, i8* %1) #0 {
  %3 = alloca i32, align 4
  %4 = alloca i8*, align 8
  %5 = alloca i8*, align 8
  store i8* %0, i8** %4, align 8
  store i8* %1, i8** %5, align 8
  %6 = load i8*, i8** %4, align 8
  %7 = call i32 @puts(i8* %6)
  %8 = call i32 @putchar(i32 10)
  %9 = load i8*, i8** %5, align 8
  %10 = call i32 @puts(i8* %9)
  %11 = call i32 @putchar(i32 10)
  %12 = load i32, i32* %3, align 4
  ret i32 %12
}

declare dso_local i32 @puts(i8*) #1

declare dso_local i32 @putchar(i32) #1

; Function Attrs: noinline nounwind uwtable
define dso_local i32 @main() #0 {
  %1 = alloca i32, align 4
  %2 = alloca [101 x i8], align 16
  %3 = alloca [101 x i8], align 16
  %4 = alloca i8, align 1
  %5 = alloca i32, align 4
  store i32 0, i32* %1, align 4
  store i32 0, i32* %5, align 4
  br label %6

6:                                                ; preds = %32, %0
  %7 = call i32 @getchar()
  %8 = trunc i32 %7 to i8
  store i8 %8, i8* %4, align 1
  %9 = sext i8 %8 to i32
  %10 = icmp ne i32 %9, -1
  br i1 %10, label %11, label %33

11:                                               ; preds = %6
  %12 = load i8, i8* %4, align 1
  %13 = sext i8 %12 to i32
  %14 = icmp ne i32 %13, 10
  br i1 %14, label %15, label %21

15:                                               ; preds = %11
  %16 = load i8, i8* %4, align 1
  %17 = load i32, i32* %5, align 4
  %18 = add nsw i32 %17, 1
  store i32 %18, i32* %5, align 4
  %19 = sext i32 %17 to i64
  %20 = getelementptr inbounds [101 x i8], [101 x i8]* %2, i64 0, i64 %19
  store i8 %16, i8* %20, align 1
  br label %32

21:                                               ; preds = %11
  %22 = load i32, i32* %5, align 4
  %23 = sext i32 %22 to i64
  %24 = getelementptr inbounds [101 x i8], [101 x i8]* %2, i64 0, i64 %23
  store i8 0, i8* %24, align 1
  %25 = getelementptr inbounds [101 x i8], [101 x i8]* %2, i64 0, i64 0
  %26 = getelementptr inbounds [101 x i8], [101 x i8]* %3, i64 0, i64 0
  %27 = load i32, i32* %5, align 4
  %28 = call i32 @match(i8* %25, i8* %26, i32 %27)
  %29 = getelementptr inbounds [101 x i8], [101 x i8]* %2, i64 0, i64 0
  %30 = getelementptr inbounds [101 x i8], [101 x i8]* %3, i64 0, i64 0
  %31 = call i32 @outresult(i8* %29, i8* %30)
  store i32 0, i32* %5, align 4
  br label %32

32:                                               ; preds = %21, %15
  br label %6

33:                                               ; preds = %6
  %34 = load i32, i32* %1, align 4
  ret i32 %34
}

declare dso_local i32 @getchar() #1


!llvm.module.flags = !{!0}
!llvm.ident = !{!1}

!0 = !{i32 1, !"wchar_size", i32 4}
!1 = !{!"clang version 10.0.0-4ubuntu1 "}
